target datalayout = "e-m:e-p270:32:32-p271:32:32-p272:64:64-i64:64-i128:128-f80:128-n8:16:32:64-S128"
target triple = "x86_64-pc-linux-gnu"

%struct.TabList = type { [32 x %struct.Tab], i32, i32, i32 }
%struct.Tab = type { ptr, i64 }
%struct.VVCFrameContext = type { ptr, [17 x %struct.VVCFrame], ptr, ptr, %struct.VVCFrameParamSets, ptr, i32, i32, ptr, %struct.VVCDSPContext, %struct.VideoDSPContext, ptr, i64, ptr, ptr, ptr, ptr, %struct.anon }
%struct.VVCFrame = type { ptr, ptr, ptr, ptr, ptr, ptr, i32, i32, i32, %struct.VVCWindow, i32, i32, ptr, ptr, i16, i8, ptr }
%struct.VVCWindow = type { i16, i16, i16, i16 }
%struct.VVCFrameParamSets = type { ptr, ptr, %struct.VVCPH, [8 x ptr], %struct.VVCLMCS, ptr }
%struct.VVCPH = type { ptr, ptr, i32, i32, i8, [3 x i16], i8, [3 x i16], %struct.PredWeightTable }
%struct.PredWeightTable = type { [2 x i8], [2 x i8], [2 x [2 x [15 x i8]]], [2 x [3 x [15 x i16]]], [2 x [3 x [15 x i16]]] }
%struct.VVCLMCS = type { i8, i8, %union.anon.0, %union.anon.0, [17 x i16], [16 x i16] }
%union.anon.0 = type { [4096 x i16] }
%struct.VVCDSPContext = type { %struct.VVCInterDSPContext, %struct.VVCIntraDSPContext, %struct.VVCItxDSPContext, %struct.VVCLMCSDSPContext, %struct.VVCLFDSPContext, %struct.VVCSAODSPContext, %struct.VVCALFDSPContext }
%struct.VVCInterDSPContext = type { [2 x [7 x [2 x [2 x ptr]]]], [2 x [7 x [2 x [2 x ptr]]]], [2 x [7 x [2 x [2 x ptr]]]], [2 x [7 x ptr]], [2 x [7 x ptr]], [2 x [7 x ptr]], ptr, ptr, ptr, ptr, ptr, ptr, ptr, ptr, ptr, ptr, ptr, [2 x [2 x ptr]] }
%struct.VVCIntraDSPContext = type { ptr, ptr, ptr, ptr, ptr, ptr, ptr, ptr, ptr, ptr }
%struct.VVCItxDSPContext = type { ptr, ptr, [3 x [6 x ptr]], ptr, ptr }
%struct.VVCLMCSDSPContext = type { ptr }
%struct.VVCLFDSPContext = type { [2 x ptr], [2 x ptr], [2 x ptr] }
%struct.VVCSAODSPContext = type { [9 x ptr], [9 x ptr], [2 x ptr] }
%struct.VVCALFDSPContext = type { [2 x ptr], ptr, ptr, ptr }
%struct.VideoDSPContext = type { ptr, ptr }
%struct.anon = type { ptr, ptr, ptr, ptr, [2 x ptr], [2 x ptr], [2 x ptr], [2 x ptr], [2 x ptr], [3 x ptr], ptr, ptr, [2 x ptr], ptr, ptr, [2 x ptr], ptr, ptr, ptr, [2 x ptr], ptr, [3 x ptr], ptr, [2 x ptr], [2 x ptr], [2 x ptr], [2 x [3 x ptr]], [2 x ptr], [2 x ptr], [3 x ptr], [3 x ptr], [3 x [2 x ptr]], [3 x [2 x ptr]], ptr, ptr, ptr, [3 x ptr], %struct.anon.1 }
%struct.anon.1 = type { i32, i32, i32, i32, i32, i32, i32, i32, i32, i32, i32, i32 }
%struct.VVCPPS = type { ptr, [3 x i8], [6 x [3 x i8]], i16, i16, [1000 x i16], [1000 x i16], i16, i16, i16, i16, i32, i16, i16, i16, i16, ptr, ptr, ptr, ptr, ptr, i16, i16, i16, i16, i16, [1000 x i16], [1000 x i16], [1000 x i16], [1000 x i16] }

@.str.2 = private unnamed_addr constant [30 x i8] c"Assertion %s failed at %s:%d\0A\00", align 1
@.str.3 = private unnamed_addr constant [16 x i8] c"l->nb_tabs < 32\00", align 1
@.str.4 = private unnamed_addr constant [21 x i8] c"libavcodec/vvc/dec.c\00", align 1

; Function Attrs: nounwind uwtable
define internal void @tl_init(ptr noundef %0, i32 noundef %1, i32 noundef %2) #0 {
  %4 = alloca ptr, align 8
  %5 = alloca i32, align 4
  %6 = alloca i32, align 4
  store ptr %0, ptr %4, align 8, !tbaa !14
  store i32 %1, ptr %5, align 4, !tbaa !10
  store i32 %2, ptr %6, align 4, !tbaa !10
  %7 = load ptr, ptr %4, align 8, !tbaa !14
  %8 = getelementptr inbounds nuw %struct.TabList, ptr %7, i32 0, i32 1
  store i32 0, ptr %8, align 8, !tbaa !18
  %9 = load i32, ptr %5, align 4, !tbaa !10
  %10 = load ptr, ptr %4, align 8, !tbaa !14
  %11 = getelementptr inbounds nuw %struct.TabList, ptr %10, i32 0, i32 2
  store i32 %9, ptr %11, align 4, !tbaa !16
  %12 = load i32, ptr %6, align 4, !tbaa !10
  %13 = load ptr, ptr %4, align 8, !tbaa !14
  %14 = getelementptr inbounds nuw %struct.TabList, ptr %13, i32 0, i32 3
  store i32 %12, ptr %14, align 8, !tbaa !173
  ret void
}

; Function Attrs: nounwind uwtable
define internal void @ispmf_tl_init(ptr noundef %0, ptr noundef %1) #0 {
  %3 = alloca ptr, align 8
  %4 = alloca ptr, align 8
  %5 = alloca ptr, align 8
  %6 = alloca i32, align 4
  %7 = alloca i32, align 4
  %8 = alloca i32, align 4
  store ptr %0, ptr %3, align 8, !tbaa !14
  store ptr %1, ptr %4, align 8, !tbaa !4
  call void @llvm.lifetime.start.p0(i64 8, ptr %5) #9
  %9 = load ptr, ptr %4, align 8, !tbaa !4
  %10 = getelementptr inbounds nuw %struct.VVCFrameContext, ptr %9, i32 0, i32 4
  %11 = getelementptr inbounds nuw %struct.VVCFrameParamSets, ptr %10, i32 0, i32 1
  %12 = load ptr, ptr %11, align 8, !tbaa !115
  store ptr %12, ptr %5, align 8, !tbaa !116
  call void @llvm.lifetime.start.p0(i64 4, ptr %6) #9
  %13 = load ptr, ptr %5, align 8, !tbaa !116
  %14 = icmp ne ptr %13, null
  br i1 %14, label %15, label %23

15:                                               ; preds = %2
  %16 = load ptr, ptr %5, align 8, !tbaa !116
  %17 = getelementptr inbounds nuw %struct.VVCPPS, ptr %16, i32 0, i32 3
  %18 = load i16, ptr %17, align 2, !tbaa !141
  %19 = zext i16 %18 to i32
  %20 = add nsw i32 %19, 64
  %21 = sub nsw i32 %20, 1
  %22 = ashr i32 %21, 6
  br label %24

23:                                               ; preds = %2
  br label %24

24:                                               ; preds = %23, %15
  %25 = phi i32 [ %22, %15 ], [ 0, %23 ]
  store i32 %25, ptr %6, align 4, !tbaa !10
  call void @llvm.lifetime.start.p0(i64 4, ptr %7) #9
  %26 = load ptr, ptr %5, align 8, !tbaa !116
  %27 = icmp ne ptr %26, null
  br i1 %27, label %28, label %36

28:                                               ; preds = %24
  %29 = load ptr, ptr %5, align 8, !tbaa !116
  %30 = getelementptr inbounds nuw %struct.VVCPPS, ptr %29, i32 0, i32 4
  %31 = load i16, ptr %30, align 8, !tbaa !142
  %32 = zext i16 %31 to i32
  %33 = add nsw i32 %32, 64
  %34 = sub nsw i32 %33, 1
  %35 = ashr i32 %34, 6
  br label %37

36:                                               ; preds = %24
  br label %37

37:                                               ; preds = %36, %28
  %38 = phi i32 [ %35, %28 ], [ 0, %36 ]
  store i32 %38, ptr %7, align 4, !tbaa !10
  call void @llvm.lifetime.start.p0(i64 4, ptr %8) #9
  %39 = load ptr, ptr %4, align 8, !tbaa !4
  %40 = getelementptr inbounds nuw %struct.VVCFrameContext, ptr %39, i32 0, i32 17
  %41 = getelementptr inbounds nuw %struct.anon, ptr %40, i32 0, i32 37
  %42 = getelementptr inbounds nuw %struct.anon.1, ptr %41, i32 0, i32 7
  %43 = load i32, ptr %42, align 4, !tbaa !159
  %44 = add nsw i32 %43, 64
  %45 = sub nsw i32 %44, 1
  %46 = ashr i32 %45, 6
  %47 = load i32, ptr %6, align 4, !tbaa !10
  %48 = icmp ne i32 %46, %47
  br i1 %48, label %60, label %49

49:                                               ; preds = %37
  %50 = load ptr, ptr %4, align 8, !tbaa !4
  %51 = getelementptr inbounds nuw %struct.VVCFrameContext, ptr %50, i32 0, i32 17
  %52 = getelementptr inbounds nuw %struct.anon, ptr %51, i32 0, i32 37
  %53 = getelementptr inbounds nuw %struct.anon.1, ptr %52, i32 0, i32 8
  %54 = load i32, ptr %53, align 8, !tbaa !160
  %55 = add nsw i32 %54, 64
  %56 = sub nsw i32 %55, 1
  %57 = ashr i32 %56, 6
  %58 = load i32, ptr %7, align 4, !tbaa !10
  %59 = icmp ne i32 %57, %58
  br label %60

60:                                               ; preds = %49, %37
  %61 = phi i1 [ true, %37 ], [ %59, %49 ]
  %62 = zext i1 %61 to i32
  store i32 %62, ptr %8, align 4, !tbaa !10
  %63 = load ptr, ptr %3, align 8, !tbaa !14
  %64 = load i32, ptr %8, align 4, !tbaa !10
  call void @tl_init(ptr noundef %63, i32 noundef 1, i32 noundef %64)
  br label %65

65:                                               ; preds = %60
  br label %66

66:                                               ; preds = %65
  %67 = load ptr, ptr %3, align 8, !tbaa !14
  %68 = getelementptr inbounds nuw %struct.TabList, ptr %67, i32 0, i32 1
  %69 = load i32, ptr %68, align 8, !tbaa !18
  %70 = icmp slt i32 %69, 32
  br i1 %70, label %72, label %71

71:                                               ; preds = %66
  call void (ptr, i32, ptr, ...) @av_log(ptr noundef null, i32 noundef 0, ptr noundef @.str.2, ptr noundef @.str.3, ptr noundef @.str.4, i32 noundef 285)
  call void @abort() #11
  unreachable

72:                                               ; preds = %66
  br label %73

73:                                               ; preds = %72
  br label %74

74:                                               ; preds = %73
  %75 = load ptr, ptr %4, align 8, !tbaa !4
  %76 = getelementptr inbounds nuw %struct.VVCFrameContext, ptr %75, i32 0, i32 17
  %77 = getelementptr inbounds nuw %struct.anon, ptr %76, i32 0, i32 11
  %78 = load ptr, ptr %3, align 8, !tbaa !14
  %79 = getelementptr inbounds nuw %struct.TabList, ptr %78, i32 0, i32 0
  %80 = load ptr, ptr %3, align 8, !tbaa !14
  %81 = getelementptr inbounds nuw %struct.TabList, ptr %80, i32 0, i32 1
  %82 = load i32, ptr %81, align 8, !tbaa !18
  %83 = sext i32 %82 to i64
  %84 = getelementptr inbounds [32 x %struct.Tab], ptr %79, i64 0, i64 %83
  %85 = getelementptr inbounds nuw %struct.Tab, ptr %84, i32 0, i32 0
  store ptr %77, ptr %85, align 8, !tbaa !21
  %86 = load i32, ptr %6, align 4, !tbaa !10
  %87 = load i32, ptr %7, align 4, !tbaa !10
  %88 = mul nsw i32 %86, %87
  %89 = sext i32 %88 to i64
  %90 = mul i64 1, %89
  %91 = load ptr, ptr %3, align 8, !tbaa !14
  %92 = getelementptr inbounds nuw %struct.TabList, ptr %91, i32 0, i32 0
  %93 = load ptr, ptr %3, align 8, !tbaa !14
  %94 = getelementptr inbounds nuw %struct.TabList, ptr %93, i32 0, i32 1
  %95 = load i32, ptr %94, align 8, !tbaa !18
  %96 = sext i32 %95 to i64
  %97 = getelementptr inbounds [32 x %struct.Tab], ptr %92, i64 0, i64 %96
  %98 = getelementptr inbounds nuw %struct.Tab, ptr %97, i32 0, i32 1
  store i64 %90, ptr %98, align 8, !tbaa !25
  %99 = load ptr, ptr %3, align 8, !tbaa !14
  %100 = getelementptr inbounds nuw %struct.TabList, ptr %99, i32 0, i32 1
  %101 = load i32, ptr %100, align 8, !tbaa !18
  %102 = add nsw i32 %101, 1
  store i32 %102, ptr %100, align 8, !tbaa !18
  br label %103

103:                                              ; preds = %74
  br label %104

104:                                              ; preds = %103
  call void @llvm.lifetime.end.p0(i64 4, ptr %8) #9
  call void @llvm.lifetime.end.p0(i64 4, ptr %7) #9
  call void @llvm.lifetime.end.p0(i64 4, ptr %6) #9
  call void @llvm.lifetime.end.p0(i64 8, ptr %5) #9
  ret void
}