; Function Attrs: mustprogress nofree norecurse nosync nounwind willreturn memory(read, argmem: readwrite, inaccessiblemem: none) uwtable
define internal void @ispmf_tl_init(ptr noundef writeonly captures(none) initializes((0, 16), (512, 524)) %0, ptr noundef %1) #3 {
  %3 = getelementptr inbounds nuw i8, ptr %1, i64 1936
  %4 = load ptr, ptr %3, align 8, !tbaa !158
  %.not = icmp eq ptr %4, null
  br i1 %.not, label %.thread, label %5

5:                                                ; preds = %2
  %6 = getelementptr inbounds nuw i8, ptr %4, i64 30
  %7 = load i16, ptr %6, align 2, !tbaa !184
  %8 = zext i16 %7 to i32
  %9 = add nuw nsw i32 %8, 63
  %10 = lshr i32 %9, 6
  %11 = getelementptr inbounds nuw i8, ptr %4, i64 32
  %12 = load i16, ptr %11, align 8, !tbaa !186
  %13 = zext i16 %12 to i32
  %14 = add nuw nsw i32 %13, 63
  %15 = lshr i32 %14, 6
  br label %.thread

.thread:                                          ; preds = %2, %5
  %16 = phi i32 [ %10, %5 ], [ 0, %2 ]
  %17 = phi i32 [ %15, %5 ], [ 0, %2 ]
  %18 = getelementptr inbounds nuw i8, ptr %1, i64 21964
  %19 = load i32, ptr %18, align 4, !tbaa !185
  %20 = add nsw i32 %19, 63
  %21 = ashr i32 %20, 6
  %.not20 = icmp eq i32 %21, %16
  br i1 %.not20, label %22, label %29

22:                                               ; preds = %.thread
  %23 = getelementptr inbounds nuw i8, ptr %1, i64 21968
  %24 = load i32, ptr %23, align 8, !tbaa !187
  %25 = add nsw i32 %24, 63
  %26 = ashr i32 %25, 6
  %27 = icmp ne i32 %26, %17
  %28 = zext i1 %27 to i32
  br label %29

29:                                               ; preds = %.thread, %22
  %30 = phi i32 [ 1, %.thread ], [ %28, %22 ]
  %31 = getelementptr inbounds nuw i8, ptr %0, i64 512
  %32 = getelementptr inbounds nuw i8, ptr %0, i64 516
  store i32 1, ptr %32, align 4, !tbaa !10
  %33 = getelementptr inbounds nuw i8, ptr %0, i64 520
  store i32 %30, ptr %33, align 8, !tbaa !167
  %34 = getelementptr inbounds nuw i8, ptr %1, i64 21480
  store ptr %34, ptr %0, align 8, !tbaa !13
  %35 = mul nuw nsw i32 %17, %16
  %36 = zext nneg i32 %35 to i64
  %37 = getelementptr inbounds nuw i8, ptr %0, i64 8
  store i64 %36, ptr %37, align 8, !tbaa !17
  store i32 1, ptr %31, align 8, !tbaa !18
  ret void
}